Certificate:
    Data:
        Version: 3 (0x2)
        Serial Number:
            5e:6a:ca:b3:12:a7:78:8a:b3:14:fe:7c:b6:cb:17:e8
        Signature Algorithm: sha256WithRSAEncryption
        Issuer: CN=blog.miklet.pro
        Validity
            Not Before: Oct 23 20:22:40 2020 GMT
            Not After : Jan 26 20:22:40 2023 GMT
        Subject: CN=client
        Subject Public Key Info:
            Public Key Algorithm: rsaEncryption
                RSA Public-Key: (2048 bit)
                Modulus:
                    00:e8:61:df:0d:97:fe:b0:50:79:85:75:4a:5f:2e:
                    1a:c6:ab:ad:15:b8:15:73:ef:68:d0:8c:27:9b:53:
                    28:a3:45:62:1b:f8:56:f6:59:ff:84:21:02:5a:51:
                    18:28:82:20:18:54:bd:7d:e2:5f:9e:74:37:c9:9b:
                    3c:4f:ec:3e:70:ff:35:4a:ff:9b:02:54:18:06:b0:
                    06:66:bd:1f:06:0b:b4:84:f5:f8:d7:20:1c:86:24:
                    47:00:33:39:4b:87:19:87:e6:69:ac:3f:27:e8:43:
                    0c:40:9d:ba:66:cd:9e:3a:33:bd:55:7d:db:eb:9d:
                    9f:3c:8d:49:90:37:07:ca:6e:21:e6:88:34:3c:b8:
                    97:1a:57:ea:d4:bb:41:84:8d:fb:4c:df:0e:1c:10:
                    8e:26:27:06:ad:65:3f:4e:1c:2b:aa:1a:5f:3e:dc:
                    f5:fc:f5:14:e1:9e:b4:fd:34:ae:14:11:72:b7:a4:
                    5d:7c:8d:5d:d4:d9:b0:61:db:16:f2:f4:91:7b:86:
                    e9:e6:c2:c4:a2:1a:f5:50:4d:b1:32:89:f1:11:e9:
                    1e:d7:f7:d2:7f:55:65:4a:13:d0:70:2d:d5:24:c1:
                    19:42:db:79:eb:c6:8e:a2:18:3e:23:7b:5f:5c:bf:
                    78:1b:2e:4b:98:79:cc:4a:e6:95:0d:d3:22:ba:cd:
                    e4:01
                Exponent: 65537 (0x10001)
        X509v3 extensions:
            X509v3 Basic Constraints: 
                CA:FALSE
            X509v3 Subject Key Identifier: 
                63:97:2C:83:4C:52:1F:64:CA:A5:9A:CB:8F:D0:6F:F0:A2:7A:1F:85
            X509v3 Authority Key Identifier: 
                keyid:02:6D:A4:8B:06:5E:EB:EF:66:E2:B7:E4:6E:60:62:59:C9:BC:7F:F3
                DirName:/CN=blog.miklet.pro
                serial:73:D1:11:F1:38:C8:09:B5:8A:CF:45:9A:9A:22:A2:73:C7:11:5C:9C

            X509v3 Extended Key Usage: 
                TLS Web Client Authentication
            X509v3 Key Usage: 
                Digital Signature
    Signature Algorithm: sha256WithRSAEncryption
         99:1e:d6:4d:02:6f:16:1c:a4:e0:f6:35:8c:6b:cb:ba:15:d1:
         62:cd:d4:08:80:be:7c:98:c3:ef:28:59:d9:46:99:3a:42:dd:
         15:8d:8b:01:44:3e:2d:ef:23:30:38:05:6f:d9:12:41:13:0f:
         d1:57:3d:07:8f:f0:a0:62:60:f2:ca:10:d1:91:53:01:90:d1:
         4a:1a:d8:57:dd:b1:f2:cc:a2:17:5b:64:96:25:83:28:60:57:
         90:6d:9e:00:08:56:6b:e9:04:aa:4c:17:a5:9b:f8:19:4e:ca:
         5b:f9:4b:22:8e:9e:2c:ae:37:ce:9b:b8:02:06:2d:97:d9:11:
         f2:2f:15:e0:c9:a2:67:7c:13:2f:eb:a4:fb:08:78:67:46:5f:
         4b:1e:e4:98:64:bd:b6:74:cc:3f:b8:4b:e6:69:3c:f6:ac:1a:
         33:e7:03:e2:64:fc:9a:c9:c2:a7:09:0b:4b:11:71:f7:0c:7e:
         b9:19:2e:06:97:78:2f:be:15:84:26:44:81:6b:66:31:90:b1:
         e1:ea:29:d9:30:5a:9d:fe:ed:ed:cf:16:7f:98:a0:0b:0f:5d:
         76:9c:08:e3:fd:d3:0f:cf:58:69:fc:4e:51:3b:8e:ff:f4:83:
         bb:51:5a:7d:92:96:7b:ee:af:fe:f9:a6:fb:54:76:87:7f:32:
         69:2d:76:eb
-----BEGIN CERTIFICATE-----
MIIDXDCCAkSgAwIBAgIQXmrKsxKneIqzFP58tssX6DANBgkqhkiG9w0BAQsFADAa
MRgwFgYDVQQDDA9ibG9nLm1pa2xldC5wcm8wHhcNMjAxMDIzMjAyMjQwWhcNMjMw
MTI2MjAyMjQwWjARMQ8wDQYDVQQDDAZjbGllbnQwggEiMA0GCSqGSIb3DQEBAQUA
A4IBDwAwggEKAoIBAQDoYd8Nl/6wUHmFdUpfLhrGq60VuBVz72jQjCebUyijRWIb
+Fb2Wf+EIQJaURgogiAYVL194l+edDfJmzxP7D5w/zVK/5sCVBgGsAZmvR8GC7SE
9fjXIByGJEcAMzlLhxmH5mmsPyfoQwxAnbpmzZ46M71VfdvrnZ88jUmQNwfKbiHm
iDQ8uJcaV+rUu0GEjftM3w4cEI4mJwatZT9OHCuqGl8+3PX89RThnrT9NK4UEXK3
pF18jV3U2bBh2xby9JF7hunmwsSiGvVQTbEyifER6R7X99J/VWVKE9BwLdUkwRlC
23nrxo6iGD4je19cv3gbLkuYecxK5pUN0yK6zeQBAgMBAAGjgaYwgaMwCQYDVR0T
BAIwADAdBgNVHQ4EFgQUY5csg0xSH2TKpZrLj9Bv8KJ6H4UwVQYDVR0jBE4wTIAU
Am2kiwZe6+9m4rfkbmBiWcm8f/OhHqQcMBoxGDAWBgNVBAMMD2Jsb2cubWlrbGV0
LnByb4IUc9ER8TjICbWKz0WamiKic8cRXJwwEwYDVR0lBAwwCgYIKwYBBQUHAwIw
CwYDVR0PBAQDAgeAMA0GCSqGSIb3DQEBCwUAA4IBAQCZHtZNAm8WHKTg9jWMa8u6
FdFizdQIgL58mMPvKFnZRpk6Qt0VjYsBRD4t7yMwOAVv2RJBEw/RVz0Hj/CgYmDy
yhDRkVMBkNFKGthX3bHyzKIXW2SWJYMoYFeQbZ4ACFZr6QSqTBelm/gZTspb+Usi
jp4srjfOm7gCBi2X2RHyLxXgyaJnfBMv66T7CHhnRl9LHuSYZL22dMw/uEvmaTz2
rBoz5wPiZPyaycKnCQtLEXH3DH65GS4Gl3gvvhWEJkSBa2YxkLHh6inZMFqd/u3t
zxZ/mKALD112nAjj/dMPz1hp/E5RO47/9IO7UVp9kpZ77q/++ab7VHaHfzJpLXbr
-----END CERTIFICATE-----
